target datalayout = "e-m:e-p270:32:32-p271:32:32-p272:64:64-i64:64-i128:128-f80:128-n8:16:32:64-S128"
target triple = "x86_64-pc-linux-gnu"

%struct.AVFilterContext = type { ptr, ptr, ptr, ptr, ptr, i32, ptr, ptr, i32, ptr, ptr, i32, i32, ptr, ptr, ptr, ptr, i32, ptr, i32, i32 }
%struct.VAAPIVPPContext = type { ptr, ptr, ptr, i32, i32, i32, ptr, ptr, %struct._VARectangle, i32, i32, i32, [10 x i32], i32, i32, ptr, ptr }
%struct._VARectangle = type { i16, i16, i16, i16 }
%struct.HDRVAAPIContext = type { %struct.VAAPIVPPContext, ptr, ptr, ptr, ptr, i32, i32, i32, ptr, ptr, %struct._VAHdrMetaDataHDR10, %struct._VAHdrMetaDataHDR10, ptr, ptr }
%struct._VAHdrMetaDataHDR10 = type { [3 x i16], [3 x i16], i16, i16, i32, i32, i16, i16, [16 x i16] }

@.str.40 = private unnamed_addr constant [77 x i8] c"Output format not set, use default format P010 for HDR to HDR tone mapping.\0A\00", align 1
@.str.41 = private unnamed_addr constant [77 x i8] c"Output format not set, use default format NV12 for HDR to SDR tone mapping.\0A\00", align 1
@.str.42 = private unnamed_addr constant [13 x i8] c"Invalid %s.\0A\00", align 1
@.str.43 = private unnamed_addr constant [16 x i8] c"color_primaries\00", align 1
@.str.44 = private unnamed_addr constant [15 x i8] c"color_transfer\00", align 1
@.str.45 = private unnamed_addr constant [13 x i8] c"color_matrix\00", align 1
@.str.46 = private unnamed_addr constant [38 x i8] c"%hu %hu|%hu %hu|%hu %hu|%hu %hu|%u %u\00", align 1
@.str.47 = private unnamed_addr constant [40 x i8] c"Option mastering-display input invalid\0A\00", align 1
@.str.48 = private unnamed_addr constant [8 x i8] c"%hu %hu\00", align 1
@.str.49 = private unnamed_addr constant [36 x i8] c"Option content-light input invalid\0A\00", align 1

; Function Attrs: cold nounwind optsize uwtable
define internal i32 @tonemap_vaapi_init(ptr noundef %0) #0 {
  %2 = alloca i32, align 4
  %3 = alloca ptr, align 8
  %4 = alloca ptr, align 8
  %5 = alloca ptr, align 8
  %6 = alloca i32, align 4
  %7 = alloca i32, align 4
  %8 = alloca i32, align 4
  %9 = alloca i32, align 4
  store ptr %0, ptr %3, align 8, !tbaa !4
  call void @llvm.lifetime.start.p0(i64 8, ptr %4) #9
  %10 = load ptr, ptr %3, align 8, !tbaa !4
  %11 = getelementptr inbounds nuw %struct.AVFilterContext, ptr %10, i32 0, i32 9
  %12 = load ptr, ptr %11, align 8, !tbaa !9
  store ptr %12, ptr %4, align 8, !tbaa !22
  call void @llvm.lifetime.start.p0(i64 8, ptr %5) #9
  %13 = load ptr, ptr %3, align 8, !tbaa !4
  %14 = getelementptr inbounds nuw %struct.AVFilterContext, ptr %13, i32 0, i32 9
  %15 = load ptr, ptr %14, align 8, !tbaa !9
  store ptr %15, ptr %5, align 8, !tbaa !24
  %16 = load ptr, ptr %3, align 8, !tbaa !4
  call void @ff_vaapi_vpp_ctx_init(ptr noundef %16)
  %17 = load ptr, ptr %4, align 8, !tbaa !22
  %18 = getelementptr inbounds nuw %struct.VAAPIVPPContext, ptr %17, i32 0, i32 15
  store ptr @tonemap_vaapi_build_filter_params, ptr %18, align 8, !tbaa !26
  %19 = load ptr, ptr %4, align 8, !tbaa !22
  %20 = getelementptr inbounds nuw %struct.VAAPIVPPContext, ptr %19, i32 0, i32 16
  store ptr @ff_vaapi_vpp_pipeline_uninit, ptr %20, align 8, !tbaa !32
  %21 = load ptr, ptr %5, align 8, !tbaa !24
  %22 = getelementptr inbounds nuw %struct.HDRVAAPIContext, ptr %21, i32 0, i32 1
  %23 = load ptr, ptr %22, align 8, !tbaa !33
  %24 = icmp ne ptr %23, null
  br i1 %24, label %25, label %32

25:                                               ; preds = %1
  %26 = load ptr, ptr %5, align 8, !tbaa !24
  %27 = getelementptr inbounds nuw %struct.HDRVAAPIContext, ptr %26, i32 0, i32 1
  %28 = load ptr, ptr %27, align 8, !tbaa !33
  %29 = call i32 @av_get_pix_fmt(ptr noundef %28)
  %30 = load ptr, ptr %4, align 8, !tbaa !22
  %31 = getelementptr inbounds nuw %struct.VAAPIVPPContext, ptr %30, i32 0, i32 9
  store i32 %29, ptr %31, align 8, !tbaa !37
  br label %46

32:                                               ; preds = %1
  %33 = load ptr, ptr %5, align 8, !tbaa !24
  %34 = getelementptr inbounds nuw %struct.HDRVAAPIContext, ptr %33, i32 0, i32 8
  %35 = load ptr, ptr %34, align 8, !tbaa !38
  %36 = icmp ne ptr %35, null
  br i1 %36, label %37, label %41

37:                                               ; preds = %32
  %38 = load ptr, ptr %4, align 8, !tbaa !22
  %39 = getelementptr inbounds nuw %struct.VAAPIVPPContext, ptr %38, i32 0, i32 9
  store i32 158, ptr %39, align 8, !tbaa !37
  %40 = load ptr, ptr %3, align 8, !tbaa !4
  call void (ptr, i32, ptr, ...) @av_log(ptr noundef %40, i32 noundef 40, ptr noundef @.str.40)
  br label %45

41:                                               ; preds = %32
  %42 = load ptr, ptr %4, align 8, !tbaa !22
  %43 = getelementptr inbounds nuw %struct.VAAPIVPPContext, ptr %42, i32 0, i32 9
  store i32 23, ptr %43, align 8, !tbaa !37
  %44 = load ptr, ptr %3, align 8, !tbaa !4
  call void (ptr, i32, ptr, ...) @av_log(ptr noundef %44, i32 noundef 40, ptr noundef @.str.41)
  br label %45

45:                                               ; preds = %41, %37
  br label %46

46:                                               ; preds = %45, %25
  br label %47

47:                                               ; preds = %46
  %48 = load ptr, ptr %5, align 8, !tbaa !24
  %49 = getelementptr inbounds nuw %struct.HDRVAAPIContext, ptr %48, i32 0, i32 2
  %50 = load ptr, ptr %49, align 8, !tbaa !39
  %51 = icmp ne ptr %50, null
  br i1 %51, label %52, label %68

52:                                               ; preds = %47
  call void @llvm.lifetime.start.p0(i64 4, ptr %6) #9
  %53 = load ptr, ptr %5, align 8, !tbaa !24
  %54 = getelementptr inbounds nuw %struct.HDRVAAPIContext, ptr %53, i32 0, i32 2
  %55 = load ptr, ptr %54, align 8, !tbaa !39
  %56 = call i32 @av_color_primaries_from_name(ptr noundef %55)
  store i32 %56, ptr %6, align 4, !tbaa !40
  %57 = load i32, ptr %6, align 4, !tbaa !40
  %58 = icmp slt i32 %57, 0
  br i1 %58, label %59, label %61

59:                                               ; preds = %52
  %60 = load ptr, ptr %3, align 8, !tbaa !4
  call void (ptr, i32, ptr, ...) @av_log(ptr noundef %60, i32 noundef 16, ptr noundef @.str.42, ptr noundef @.str.43)
  store i32 -22, ptr %2, align 4
  store i32 1, ptr %7, align 4
  br label %65

61:                                               ; preds = %52
  %62 = load i32, ptr %6, align 4, !tbaa !40
  %63 = load ptr, ptr %5, align 8, !tbaa !24
  %64 = getelementptr inbounds nuw %struct.HDRVAAPIContext, ptr %63, i32 0, i32 5
  store i32 %62, ptr %64, align 8, !tbaa !41
  store i32 0, ptr %7, align 4
  br label %65

65:                                               ; preds = %61, %59
  call void @llvm.lifetime.end.p0(i64 4, ptr %6) #9
  %66 = load i32, ptr %7, align 4
  switch i32 %66, label %205 [
    i32 0, label %67
  ]

67:                                               ; preds = %65
  br label %71

68:                                               ; preds = %47
  %69 = load ptr, ptr %5, align 8, !tbaa !24
  %70 = getelementptr inbounds nuw %struct.HDRVAAPIContext, ptr %69, i32 0, i32 5
  store i32 2, ptr %70, align 8, !tbaa !41
  br label %71

71:                                               ; preds = %68, %67
  br label %72

72:                                               ; preds = %71
  br label %73

73:                                               ; preds = %72
  br label %74

74:                                               ; preds = %73
  %75 = load ptr, ptr %5, align 8, !tbaa !24
  %76 = getelementptr inbounds nuw %struct.HDRVAAPIContext, ptr %75, i32 0, i32 3
  %77 = load ptr, ptr %76, align 8, !tbaa !42
  %78 = icmp ne ptr %77, null
  br i1 %78, label %79, label %95

79:                                               ; preds = %74
  call void @llvm.lifetime.start.p0(i64 4, ptr %8) #9
  %80 = load ptr, ptr %5, align 8, !tbaa !24
  %81 = getelementptr inbounds nuw %struct.HDRVAAPIContext, ptr %80, i32 0, i32 3
  %82 = load ptr, ptr %81, align 8, !tbaa !42
  %83 = call i32 @av_color_transfer_from_name(ptr noundef %82)
  store i32 %83, ptr %8, align 4, !tbaa !40
  %84 = load i32, ptr %8, align 4, !tbaa !40
  %85 = icmp slt i32 %84, 0
  br i1 %85, label %86, label %88

86:                                               ; preds = %79
  %87 = load ptr, ptr %3, align 8, !tbaa !4
  call void (ptr, i32, ptr, ...) @av_log(ptr noundef %87, i32 noundef 16, ptr noundef @.str.42, ptr noundef @.str.44)
  store i32 -22, ptr %2, align 4
  store i32 1, ptr %7, align 4
  br label %92

88:                                               ; preds = %79
  %89 = load i32, ptr %8, align 4, !tbaa !40
  %90 = load ptr, ptr %5, align 8, !tbaa !24
  %91 = getelementptr inbounds nuw %struct.HDRVAAPIContext, ptr %90, i32 0, i32 6
  store i32 %89, ptr %91, align 4, !tbaa !43
  store i32 0, ptr %7, align 4
  br label %92

92:                                               ; preds = %88, %86
  call void @llvm.lifetime.end.p0(i64 4, ptr %8) #9
  %93 = load i32, ptr %7, align 4
  switch i32 %93, label %205 [
    i32 0, label %94
  ]

94:                                               ; preds = %92
  br label %98

95:                                               ; preds = %74
  %96 = load ptr, ptr %5, align 8, !tbaa !24
  %97 = getelementptr inbounds nuw %struct.HDRVAAPIContext, ptr %96, i32 0, i32 6
  store i32 2, ptr %97, align 4, !tbaa !43
  br label %98

98:                                               ; preds = %95, %94
  br label %99

99:                                               ; preds = %98
  br label %100

100:                                              ; preds = %99
  br label %101

101:                                              ; preds = %100
  %102 = load ptr, ptr %5, align 8, !tbaa !24
  %103 = getelementptr inbounds nuw %struct.HDRVAAPIContext, ptr %102, i32 0, i32 4
  %104 = load ptr, ptr %103, align 8, !tbaa !44
  %105 = icmp ne ptr %104, null
  br i1 %105, label %106, label %122

106:                                              ; preds = %101
  call void @llvm.lifetime.start.p0(i64 4, ptr %9) #9
  %107 = load ptr, ptr %5, align 8, !tbaa !24
  %108 = getelementptr inbounds nuw %struct.HDRVAAPIContext, ptr %107, i32 0, i32 4
  %109 = load ptr, ptr %108, align 8, !tbaa !44
  %110 = call i32 @av_color_space_from_name(ptr noundef %109)
  store i32 %110, ptr %9, align 4, !tbaa !40
  %111 = load i32, ptr %9, align 4, !tbaa !40
  %112 = icmp slt i32 %111, 0
  br i1 %112, label %113, label %115

113:                                              ; preds = %106
  %114 = load ptr, ptr %3, align 8, !tbaa !4
  call void (ptr, i32, ptr, ...) @av_log(ptr noundef %114, i32 noundef 16, ptr noundef @.str.42, ptr noundef @.str.45)
  store i32 -22, ptr %2, align 4
  store i32 1, ptr %7, align 4
  br label %119

115:                                              ; preds = %106
  %116 = load i32, ptr %9, align 4, !tbaa !40
  %117 = load ptr, ptr %5, align 8, !tbaa !24
  %118 = getelementptr inbounds nuw %struct.HDRVAAPIContext, ptr %117, i32 0, i32 7
  store i32 %116, ptr %118, align 8, !tbaa !45
  store i32 0, ptr %7, align 4
  br label %119

119:                                              ; preds = %115, %113
  call void @llvm.lifetime.end.p0(i64 4, ptr %9) #9
  %120 = load i32, ptr %7, align 4
  switch i32 %120, label %205 [
    i32 0, label %121
  ]

121:                                              ; preds = %119
  br label %125

122:                                              ; preds = %101
  %123 = load ptr, ptr %5, align 8, !tbaa !24
  %124 = getelementptr inbounds nuw %struct.HDRVAAPIContext, ptr %123, i32 0, i32 7
  store i32 2, ptr %124, align 8, !tbaa !45
  br label %125

125:                                              ; preds = %122, %121
  br label %126

126:                                              ; preds = %125
  br label %127

127:                                              ; preds = %126
  %128 = load ptr, ptr %5, align 8, !tbaa !24
  %129 = getelementptr inbounds nuw %struct.HDRVAAPIContext, ptr %128, i32 0, i32 8
  %130 = load ptr, ptr %129, align 8, !tbaa !38
  %131 = icmp ne ptr %130, null
  br i1 %131, label %132, label %204

132:                                              ; preds = %127
  %133 = load ptr, ptr %5, align 8, !tbaa !24
  %134 = getelementptr inbounds nuw %struct.HDRVAAPIContext, ptr %133, i32 0, i32 8
  %135 = load ptr, ptr %134, align 8, !tbaa !38
  %136 = load ptr, ptr %5, align 8, !tbaa !24
  %137 = getelementptr inbounds nuw %struct.HDRVAAPIContext, ptr %136, i32 0, i32 11
  %138 = getelementptr inbounds nuw %struct._VAHdrMetaDataHDR10, ptr %137, i32 0, i32 0
  %139 = getelementptr inbounds [3 x i16], ptr %138, i64 0, i64 0
  %140 = load ptr, ptr %5, align 8, !tbaa !24
  %141 = getelementptr inbounds nuw %struct.HDRVAAPIContext, ptr %140, i32 0, i32 11
  %142 = getelementptr inbounds nuw %struct._VAHdrMetaDataHDR10, ptr %141, i32 0, i32 1
  %143 = getelementptr inbounds [3 x i16], ptr %142, i64 0, i64 0
  %144 = load ptr, ptr %5, align 8, !tbaa !24
  %145 = getelementptr inbounds nuw %struct.HDRVAAPIContext, ptr %144, i32 0, i32 11
  %146 = getelementptr inbounds nuw %struct._VAHdrMetaDataHDR10, ptr %145, i32 0, i32 0
  %147 = getelementptr inbounds [3 x i16], ptr %146, i64 0, i64 1
  %148 = load ptr, ptr %5, align 8, !tbaa !24
  %149 = getelementptr inbounds nuw %struct.HDRVAAPIContext, ptr %148, i32 0, i32 11
  %150 = getelementptr inbounds nuw %struct._VAHdrMetaDataHDR10, ptr %149, i32 0, i32 1
  %151 = getelementptr inbounds [3 x i16], ptr %150, i64 0, i64 1
  %152 = load ptr, ptr %5, align 8, !tbaa !24
  %153 = getelementptr inbounds nuw %struct.HDRVAAPIContext, ptr %152, i32 0, i32 11
  %154 = getelementptr inbounds nuw %struct._VAHdrMetaDataHDR10, ptr %153, i32 0, i32 0
  %155 = getelementptr inbounds [3 x i16], ptr %154, i64 0, i64 2
  %156 = load ptr, ptr %5, align 8, !tbaa !24
  %157 = getelementptr inbounds nuw %struct.HDRVAAPIContext, ptr %156, i32 0, i32 11
  %158 = getelementptr inbounds nuw %struct._VAHdrMetaDataHDR10, ptr %157, i32 0, i32 1
  %159 = getelementptr inbounds [3 x i16], ptr %158, i64 0, i64 2
  %160 = load ptr, ptr %5, align 8, !tbaa !24
  %161 = getelementptr inbounds nuw %struct.HDRVAAPIContext, ptr %160, i32 0, i32 11
  %162 = getelementptr inbounds nuw %struct._VAHdrMetaDataHDR10, ptr %161, i32 0, i32 2
  %163 = load ptr, ptr %5, align 8, !tbaa !24
  %164 = getelementptr inbounds nuw %struct.HDRVAAPIContext, ptr %163, i32 0, i32 11
  %165 = getelementptr inbounds nuw %struct._VAHdrMetaDataHDR10, ptr %164, i32 0, i32 3
  %166 = load ptr, ptr %5, align 8, !tbaa !24
  %167 = getelementptr inbounds nuw %struct.HDRVAAPIContext, ptr %166, i32 0, i32 11
  %168 = getelementptr inbounds nuw %struct._VAHdrMetaDataHDR10, ptr %167, i32 0, i32 5
  %169 = load ptr, ptr %5, align 8, !tbaa !24
  %170 = getelementptr inbounds nuw %struct.HDRVAAPIContext, ptr %169, i32 0, i32 11
  %171 = getelementptr inbounds nuw %struct._VAHdrMetaDataHDR10, ptr %170, i32 0, i32 4
  %172 = call i32 (ptr, ptr, ...) @__isoc99_sscanf(ptr noundef %135, ptr noundef @.str.46, ptr noundef %139, ptr noundef %143, ptr noundef %147, ptr noundef %151, ptr noundef %155, ptr noundef %159, ptr noundef %162, ptr noundef %165, ptr noundef %168, ptr noundef %171) #9
  %173 = icmp ne i32 10, %172
  br i1 %173, label %174, label %176

174:                                              ; preds = %132
  %175 = load ptr, ptr %3, align 8, !tbaa !4
  call void (ptr, i32, ptr, ...) @av_log(ptr noundef %175, i32 noundef 16, ptr noundef @.str.47)
  store i32 -22, ptr %2, align 4
  store i32 1, ptr %7, align 4
  br label %205

176:                                              ; preds = %132
  %177 = load ptr, ptr %5, align 8, !tbaa !24
  %178 = getelementptr inbounds nuw %struct.HDRVAAPIContext, ptr %177, i32 0, i32 9
  %179 = load ptr, ptr %178, align 8, !tbaa !46
  %180 = icmp ne ptr %179, null
  br i1 %180, label %188, label %181

181:                                              ; preds = %176
  %182 = load ptr, ptr %5, align 8, !tbaa !24
  %183 = getelementptr inbounds nuw %struct.HDRVAAPIContext, ptr %182, i32 0, i32 11
  %184 = getelementptr inbounds nuw %struct._VAHdrMetaDataHDR10, ptr %183, i32 0, i32 6
  store i16 0, ptr %184, align 4, !tbaa !47
  %185 = load ptr, ptr %5, align 8, !tbaa !24
  %186 = getelementptr inbounds nuw %struct.HDRVAAPIContext, ptr %185, i32 0, i32 11
  %187 = getelementptr inbounds nuw %struct._VAHdrMetaDataHDR10, ptr %186, i32 0, i32 7
  store i16 0, ptr %187, align 2, !tbaa !48
  br label %203

188:                                              ; preds = %176
  %189 = load ptr, ptr %5, align 8, !tbaa !24
  %190 = getelementptr inbounds nuw %struct.HDRVAAPIContext, ptr %189, i32 0, i32 9
  %191 = load ptr, ptr %190, align 8, !tbaa !46
  %192 = load ptr, ptr %5, align 8, !tbaa !24
  %193 = getelementptr inbounds nuw %struct.HDRVAAPIContext, ptr %192, i32 0, i32 11
  %194 = getelementptr inbounds nuw %struct._VAHdrMetaDataHDR10, ptr %193, i32 0, i32 6
  %195 = load ptr, ptr %5, align 8, !tbaa !24
  %196 = getelementptr inbounds nuw %struct.HDRVAAPIContext, ptr %195, i32 0, i32 11
  %197 = getelementptr inbounds nuw %struct._VAHdrMetaDataHDR10, ptr %196, i32 0, i32 7
  %198 = call i32 (ptr, ptr, ...) @__isoc99_sscanf(ptr noundef %191, ptr noundef @.str.48, ptr noundef %194, ptr noundef %197) #9
  %199 = icmp ne i32 2, %198
  br i1 %199, label %200, label %202

200:                                              ; preds = %188
  %201 = load ptr, ptr %3, align 8, !tbaa !4
  call void (ptr, i32, ptr, ...) @av_log(ptr noundef %201, i32 noundef 16, ptr noundef @.str.49)
  store i32 -22, ptr %2, align 4
  store i32 1, ptr %7, align 4
  br label %205

202:                                              ; preds = %188
  br label %203

203:                                              ; preds = %202, %181
  br label %204

204:                                              ; preds = %203, %127
  store i32 0, ptr %2, align 4
  store i32 1, ptr %7, align 4
  br label %205

205:                                              ; preds = %204, %200, %174, %119, %92, %65
  call void @llvm.lifetime.end.p0(i64 8, ptr %5) #9
  call void @llvm.lifetime.end.p0(i64 8, ptr %4) #9
  %206 = load i32, ptr %2, align 4
  ret i32 %206
}