; Function Attrs: cold nounwind optsize uwtable
define internal range(i32 -22, 1) i32 @tonemap_vaapi_init(ptr noundef %0) #0 {
  %2 = getelementptr inbounds nuw i8, ptr %0, i64 72
  %3 = load ptr, ptr %2, align 8, !tbaa !4
  tail call void @ff_vaapi_vpp_ctx_init(ptr noundef %0) #9
  %4 = getelementptr inbounds nuw i8, ptr %3, i64 128
  store ptr @tonemap_vaapi_build_filter_params, ptr %4, align 8, !tbaa !20
  %5 = getelementptr inbounds nuw i8, ptr %3, i64 136
  store ptr @ff_vaapi_vpp_pipeline_uninit, ptr %5, align 8, !tbaa !26
  %6 = getelementptr inbounds nuw i8, ptr %3, i64 144
  %7 = load ptr, ptr %6, align 8, !tbaa !27
  %.not = icmp eq ptr %7, null
  br i1 %.not, label %11, label %8

8:                                                ; preds = %1
  %9 = tail call i32 @av_get_pix_fmt(ptr noundef nonnull %7) #9
  %10 = getelementptr inbounds nuw i8, ptr %3, i64 64
  store i32 %9, ptr %10, align 8, !tbaa !31
  br label %17

11:                                               ; preds = %1
  %12 = getelementptr inbounds nuw i8, ptr %3, i64 192
  %13 = load ptr, ptr %12, align 8, !tbaa !32
  %.not70 = icmp eq ptr %13, null
  %14 = getelementptr inbounds nuw i8, ptr %3, i64 64
  br i1 %.not70, label %16, label %15

15:                                               ; preds = %11
  store i32 158, ptr %14, align 8, !tbaa !31
  tail call void (ptr, i32, ptr, ...) @av_log(ptr noundef nonnull %0, i32 noundef 40, ptr noundef nonnull @.str.40) #9
  br label %17

16:                                               ; preds = %11
  store i32 23, ptr %14, align 8, !tbaa !31
  tail call void (ptr, i32, ptr, ...) @av_log(ptr noundef nonnull %0, i32 noundef 40, ptr noundef nonnull @.str.41) #9
  br label %17

17:                                               ; preds = %8, %16, %15
  %18 = getelementptr inbounds nuw i8, ptr %3, i64 152
  %19 = load ptr, ptr %18, align 8, !tbaa !33
  %.not71 = icmp eq ptr %19, null
  br i1 %.not71, label %.thread, label %20

20:                                               ; preds = %17
  %21 = tail call i32 @av_color_primaries_from_name(ptr noundef nonnull %19) #9
  %22 = icmp sgt i32 %21, -1
  br i1 %22, label %.thread, label %23

23:                                               ; preds = %20
  tail call void (ptr, i32, ptr, ...) @av_log(ptr noundef nonnull %0, i32 noundef 16, ptr noundef nonnull @.str.42, ptr noundef nonnull @.str.43) #9
  br label %64

.thread:                                          ; preds = %17, %20
  %.sink = phi i32 [ %21, %20 ], [ 2, %17 ]
  %24 = getelementptr inbounds nuw i8, ptr %3, i64 176
  store i32 %.sink, ptr %24, align 8, !tbaa !34
  %25 = getelementptr inbounds nuw i8, ptr %3, i64 160
  %26 = load ptr, ptr %25, align 8, !tbaa !35
  %.not72 = icmp eq ptr %26, null
  br i1 %.not72, label %.thread78, label %27

27:                                               ; preds = %.thread
  %28 = tail call i32 @av_color_transfer_from_name(ptr noundef nonnull %26) #9
  %29 = icmp sgt i32 %28, -1
  br i1 %29, label %.thread78, label %30

30:                                               ; preds = %27
  tail call void (ptr, i32, ptr, ...) @av_log(ptr noundef nonnull %0, i32 noundef 16, ptr noundef nonnull @.str.42, ptr noundef nonnull @.str.44) #9
  br label %64

.thread78:                                        ; preds = %.thread, %27
  %.sink81 = phi i32 [ %28, %27 ], [ 2, %.thread ]
  %31 = getelementptr inbounds nuw i8, ptr %3, i64 180
  store i32 %.sink81, ptr %31, align 4, !tbaa !36
  %32 = getelementptr inbounds nuw i8, ptr %3, i64 168
  %33 = load ptr, ptr %32, align 8, !tbaa !37
  %.not73 = icmp eq ptr %33, null
  br i1 %.not73, label %.thread79, label %34

34:                                               ; preds = %.thread78
  %35 = tail call i32 @av_color_space_from_name(ptr noundef nonnull %33) #9
  %36 = icmp sgt i32 %35, -1
  br i1 %36, label %.thread79, label %37

37:                                               ; preds = %34
  tail call void (ptr, i32, ptr, ...) @av_log(ptr noundef nonnull %0, i32 noundef 16, ptr noundef nonnull @.str.42, ptr noundef nonnull @.str.45) #9
  br label %64

.thread79:                                        ; preds = %.thread78, %34
  %.sink83 = phi i32 [ %35, %34 ], [ 2, %.thread78 ]
  %38 = getelementptr inbounds nuw i8, ptr %3, i64 184
  store i32 %.sink83, ptr %38, align 8, !tbaa !38
  %39 = getelementptr inbounds nuw i8, ptr %3, i64 192
  %40 = load ptr, ptr %39, align 8, !tbaa !32
  %.not74 = icmp eq ptr %40, null
  br i1 %.not74, label %64, label %41

41:                                               ; preds = %.thread79
  %42 = getelementptr inbounds nuw i8, ptr %3, i64 268
  %43 = getelementptr inbounds nuw i8, ptr %3, i64 274
  %44 = getelementptr inbounds nuw i8, ptr %3, i64 270
  %45 = getelementptr inbounds nuw i8, ptr %3, i64 276
  %46 = getelementptr inbounds nuw i8, ptr %3, i64 272
  %47 = getelementptr inbounds nuw i8, ptr %3, i64 278
  %48 = getelementptr inbounds nuw i8, ptr %3, i64 280
  %49 = getelementptr inbounds nuw i8, ptr %3, i64 282
  %50 = getelementptr inbounds nuw i8, ptr %3, i64 288
  %51 = getelementptr inbounds nuw i8, ptr %3, i64 284
  %52 = tail call i32 (ptr, ptr, ...) @__isoc99_sscanf(ptr noundef nonnull %40, ptr noundef nonnull @.str.46, ptr noundef nonnull %42, ptr noundef nonnull %43, ptr noundef nonnull %44, ptr noundef nonnull %45, ptr noundef nonnull %46, ptr noundef nonnull %47, ptr noundef nonnull %48, ptr noundef nonnull %49, ptr noundef nonnull %50, ptr noundef nonnull %51) #9
  %.not75 = icmp eq i32 %52, 10
  br i1 %.not75, label %54, label %53

53:                                               ; preds = %41
  tail call void (ptr, i32, ptr, ...) @av_log(ptr noundef nonnull %0, i32 noundef 16, ptr noundef nonnull @.str.47) #9
  br label %64

54:                                               ; preds = %41
  %55 = getelementptr inbounds nuw i8, ptr %3, i64 200
  %56 = load ptr, ptr %55, align 8, !tbaa !39
  %.not76 = icmp eq ptr %56, null
  %57 = getelementptr inbounds nuw i8, ptr %3, i64 292
  br i1 %.not76, label %58, label %60

58:                                               ; preds = %54
  store i16 0, ptr %57, align 4, !tbaa !40
  %59 = getelementptr inbounds nuw i8, ptr %3, i64 294
  store i16 0, ptr %59, align 2, !tbaa !41
  br label %64

60:                                               ; preds = %54
  %61 = getelementptr inbounds nuw i8, ptr %3, i64 294
  %62 = tail call i32 (ptr, ptr, ...) @__isoc99_sscanf(ptr noundef nonnull %56, ptr noundef nonnull @.str.48, ptr noundef nonnull %57, ptr noundef nonnull %61) #9
  %.not77 = icmp eq i32 %62, 2
  br i1 %.not77, label %64, label %63

63:                                               ; preds = %60
  tail call void (ptr, i32, ptr, ...) @av_log(ptr noundef nonnull %0, i32 noundef 16, ptr noundef nonnull @.str.49) #9
  br label %64

64:                                               ; preds = %37, %30, %23, %.thread79, %60, %58, %63, %53
  %.1 = phi i32 [ -22, %53 ], [ -22, %63 ], [ -22, %37 ], [ -22, %30 ], [ -22, %23 ], [ 0, %58 ], [ 0, %60 ], [ 0, %.thread79 ]
  ret i32 %.1
}